target datalayout = "e-m:e-p270:32:32-p271:32:32-p272:64:64-i64:64-i128:128-f80:128-n8:16:32:64-S128"
target triple = "x86_64-pc-linux-gnu"

@hf_q931_extension_ind = internal global i32 0, align 4
@hf_q931_coding_standard = internal global i32 0, align 4
@hf_q931_interpretation = internal global i32 0, align 4
@hf_q931_pres_meth_prot_prof = internal global i32 0, align 4
@hf_q931_high_layer_compat_data = internal global i32 0, align 4
@hf_q931_high_layer_characteristics = internal global i32 0, align 4
@hf_q931_extended_audiovisual_characteristics = internal global i32 0, align 4
@hf_q931_extended_high_layer_characteristics = internal global i32 0, align 4

; Function Attrs: null_pointer_is_valid sspstrong uwtable
define void @dissect_q931_high_layer_compat_ie(ptr noundef %0, i32 noundef %1, i32 noundef %2, ptr noundef %3) #0 {
  %5 = alloca ptr, align 8
  %6 = alloca i32, align 4
  %7 = alloca i32, align 4
  %8 = alloca ptr, align 8
  %9 = alloca i8, align 1
  %10 = alloca i8, align 1
  %11 = alloca i8, align 1
  %12 = alloca i8, align 1
  %13 = alloca i32, align 4
  store ptr %0, ptr %5, align 8
  store i32 %1, ptr %6, align 4
  store i32 %2, ptr %7, align 4
  store ptr %3, ptr %8, align 8
  call void @llvm.lifetime.start.p0(i64 1, ptr %9) #8
  call void @llvm.lifetime.start.p0(i64 1, ptr %10) #8
  call void @llvm.lifetime.start.p0(i64 1, ptr %11) #8
  call void @llvm.lifetime.start.p0(i64 1, ptr %12) #8
  %14 = load i32, ptr %7, align 4
  %15 = icmp eq i32 %14, 0
  br i1 %15, label %16, label %17

16:                                               ; preds = %4
  store i32 1, ptr %13, align 4
  br label %165

17:                                               ; preds = %4
  %18 = load ptr, ptr %5, align 8
  %19 = load i32, ptr %6, align 4
  %20 = call zeroext i8 @tvb_get_uint8(ptr noundef %18, i32 noundef %19)
  store i8 %20, ptr %9, align 1
  %21 = load i8, ptr %9, align 1
  %22 = zext i8 %21 to i32
  %23 = and i32 %22, 96
  %24 = trunc i32 %23 to i8
  store i8 %24, ptr %10, align 1
  %25 = load i8, ptr %9, align 1
  %26 = zext i8 %25 to i32
  %27 = and i32 %26, 3
  %28 = trunc i32 %27 to i8
  store i8 %28, ptr %11, align 1
  %29 = load ptr, ptr %8, align 8
  %30 = load i32, ptr @hf_q931_extension_ind, align 4
  %31 = load ptr, ptr %5, align 8
  %32 = load i32, ptr %6, align 4
  %33 = call ptr @proto_tree_add_item(ptr noundef %29, i32 noundef %30, ptr noundef %31, i32 noundef %32, i32 noundef 1, i32 noundef 0)
  %34 = load ptr, ptr %8, align 8
  %35 = load i32, ptr @hf_q931_coding_standard, align 4
  %36 = load ptr, ptr %5, align 8
  %37 = load i32, ptr %6, align 4
  %38 = load i8, ptr %9, align 1
  %39 = zext i8 %38 to i32
  %40 = call ptr @proto_tree_add_uint(ptr noundef %34, i32 noundef %35, ptr noundef %36, i32 noundef %37, i32 noundef 1, i32 noundef %39)
  %41 = load ptr, ptr %8, align 8
  %42 = load i32, ptr @hf_q931_interpretation, align 4
  %43 = load ptr, ptr %5, align 8
  %44 = load i32, ptr %6, align 4
  %45 = load i8, ptr %9, align 1
  %46 = zext i8 %45 to i32
  %47 = call ptr @proto_tree_add_uint(ptr noundef %41, i32 noundef %42, ptr noundef %43, i32 noundef %44, i32 noundef 1, i32 noundef %46)
  %48 = load ptr, ptr %8, align 8
  %49 = load i32, ptr @hf_q931_pres_meth_prot_prof, align 4
  %50 = load ptr, ptr %5, align 8
  %51 = load i32, ptr %6, align 4
  %52 = load i8, ptr %9, align 1
  %53 = zext i8 %52 to i32
  %54 = call ptr @proto_tree_add_uint(ptr noundef %48, i32 noundef %49, ptr noundef %50, i32 noundef %51, i32 noundef 1, i32 noundef %53)
  %55 = load i32, ptr %6, align 4
  %56 = add i32 %55, 1
  store i32 %56, ptr %6, align 4
  %57 = load i32, ptr %7, align 4
  %58 = sub i32 %57, 1
  store i32 %58, ptr %7, align 4
  %59 = load i8, ptr %10, align 1
  %60 = zext i8 %59 to i32
  %61 = icmp ne i32 %60, 0
  br i1 %61, label %66, label %62

62:                                               ; preds = %17
  %63 = load i8, ptr %11, align 1
  %64 = zext i8 %63 to i32
  %65 = icmp ne i32 %64, 1
  br i1 %65, label %66, label %73

66:                                               ; preds = %62, %17
  %67 = load ptr, ptr %8, align 8
  %68 = load i32, ptr @hf_q931_high_layer_compat_data, align 4
  %69 = load ptr, ptr %5, align 8
  %70 = load i32, ptr %6, align 4
  %71 = load i32, ptr %7, align 4
  %72 = call ptr @proto_tree_add_item(ptr noundef %67, i32 noundef %68, ptr noundef %69, i32 noundef %70, i32 noundef %71, i32 noundef 0)
  store i32 1, ptr %13, align 4
  br label %165

73:                                               ; preds = %62
  %74 = load i32, ptr %7, align 4
  %75 = icmp eq i32 %74, 0
  br i1 %75, label %76, label %77

76:                                               ; preds = %73
  store i32 1, ptr %13, align 4
  br label %165

77:                                               ; preds = %73
  %78 = load ptr, ptr %5, align 8
  %79 = load i32, ptr %6, align 4
  %80 = call zeroext i8 @tvb_get_uint8(ptr noundef %78, i32 noundef %79)
  store i8 %80, ptr %9, align 1
  %81 = load i8, ptr %9, align 1
  %82 = zext i8 %81 to i32
  %83 = and i32 %82, 127
  %84 = trunc i32 %83 to i8
  store i8 %84, ptr %12, align 1
  %85 = load ptr, ptr %8, align 8
  %86 = load i32, ptr @hf_q931_extension_ind, align 4
  %87 = load ptr, ptr %5, align 8
  %88 = load i32, ptr %6, align 4
  %89 = call ptr @proto_tree_add_item(ptr noundef %85, i32 noundef %86, ptr noundef %87, i32 noundef %88, i32 noundef 1, i32 noundef 0)
  %90 = load ptr, ptr %8, align 8
  %91 = load i32, ptr @hf_q931_high_layer_characteristics, align 4
  %92 = load ptr, ptr %5, align 8
  %93 = load i32, ptr %6, align 4
  %94 = load i8, ptr %9, align 1
  %95 = zext i8 %94 to i32
  %96 = call ptr @proto_tree_add_uint(ptr noundef %90, i32 noundef %91, ptr noundef %92, i32 noundef %93, i32 noundef 1, i32 noundef %95)
  %97 = load i32, ptr %6, align 4
  %98 = add i32 %97, 1
  store i32 %98, ptr %6, align 4
  %99 = load i32, ptr %7, align 4
  %100 = sub i32 %99, 1
  store i32 %100, ptr %7, align 4
  %101 = load i8, ptr %9, align 1
  %102 = zext i8 %101 to i32
  %103 = and i32 %102, 128
  %104 = icmp ne i32 %103, 0
  br i1 %104, label %164, label %105

105:                                              ; preds = %77
  %106 = load i32, ptr %7, align 4
  %107 = icmp eq i32 %106, 0
  br i1 %107, label %108, label %109

108:                                              ; preds = %105
  store i32 1, ptr %13, align 4
  br label %165

109:                                              ; preds = %105
  %110 = load ptr, ptr %5, align 8
  %111 = load i32, ptr %6, align 4
  %112 = call zeroext i8 @tvb_get_uint8(ptr noundef %110, i32 noundef %111)
  store i8 %112, ptr %9, align 1
  %113 = load i8, ptr %12, align 1
  %114 = zext i8 %113 to i32
  %115 = icmp eq i32 %114, 96
  br i1 %115, label %128, label %116

116:                                              ; preds = %109
  %117 = load i8, ptr %12, align 1
  %118 = zext i8 %117 to i32
  %119 = icmp eq i32 %118, 97
  br i1 %119, label %128, label %120

120:                                              ; preds = %116
  %121 = load i8, ptr %12, align 1
  %122 = zext i8 %121 to i32
  %123 = icmp eq i32 %122, 98
  br i1 %123, label %128, label %124

124:                                              ; preds = %120
  %125 = load i8, ptr %12, align 1
  %126 = zext i8 %125 to i32
  %127 = icmp eq i32 %126, 104
  br i1 %127, label %128, label %141

128:                                              ; preds = %124, %120, %116, %109
  %129 = load ptr, ptr %8, align 8
  %130 = load i32, ptr @hf_q931_extension_ind, align 4
  %131 = load ptr, ptr %5, align 8
  %132 = load i32, ptr %6, align 4
  %133 = call ptr @proto_tree_add_item(ptr noundef %129, i32 noundef %130, ptr noundef %131, i32 noundef %132, i32 noundef 1, i32 noundef 0)
  %134 = load ptr, ptr %8, align 8
  %135 = load i32, ptr @hf_q931_extended_audiovisual_characteristics, align 4
  %136 = load ptr, ptr %5, align 8
  %137 = load i32, ptr %6, align 4
  %138 = load i8, ptr %9, align 1
  %139 = zext i8 %138 to i32
  %140 = call ptr @proto_tree_add_uint(ptr noundef %134, i32 noundef %135, ptr noundef %136, i32 noundef %137, i32 noundef 1, i32 noundef %139)
  br label %163

141:                                              ; preds = %124
  %142 = load i8, ptr %12, align 1
  %143 = zext i8 %142 to i32
  %144 = icmp eq i32 %143, 95
  br i1 %144, label %149, label %145

145:                                              ; preds = %141
  %146 = load i8, ptr %12, align 1
  %147 = zext i8 %146 to i32
  %148 = icmp eq i32 %147, 94
  br i1 %148, label %149, label %162

149:                                              ; preds = %145, %141
  %150 = load ptr, ptr %8, align 8
  %151 = load i32, ptr @hf_q931_extension_ind, align 4
  %152 = load ptr, ptr %5, align 8
  %153 = load i32, ptr %6, align 4
  %154 = call ptr @proto_tree_add_item(ptr noundef %150, i32 noundef %151, ptr noundef %152, i32 noundef %153, i32 noundef 1, i32 noundef 0)
  %155 = load ptr, ptr %8, align 8
  %156 = load i32, ptr @hf_q931_extended_high_layer_characteristics, align 4
  %157 = load ptr, ptr %5, align 8
  %158 = load i32, ptr %6, align 4
  %159 = load i8, ptr %9, align 1
  %160 = zext i8 %159 to i32
  %161 = call ptr @proto_tree_add_uint(ptr noundef %155, i32 noundef %156, ptr noundef %157, i32 noundef %158, i32 noundef 1, i32 noundef %160)
  br label %162

162:                                              ; preds = %149, %145
  br label %163

163:                                              ; preds = %162, %128
  br label %164

164:                                              ; preds = %163, %77
  store i32 0, ptr %13, align 4
  br label %165

165:                                              ; preds = %164, %108, %76, %66, %16
  call void @llvm.lifetime.end.p0(i64 1, ptr %12) #8
  call void @llvm.lifetime.end.p0(i64 1, ptr %11) #8
  call void @llvm.lifetime.end.p0(i64 1, ptr %10) #8
  call void @llvm.lifetime.end.p0(i64 1, ptr %9) #8
  %166 = load i32, ptr %13, align 4
  switch i32 %166, label %168 [
    i32 0, label %167
    i32 1, label %167
  ]

167:                                              ; preds = %165, %165
  ret void

168:                                              ; preds = %165
  unreachable
}