; Function Attrs: null_pointer_is_valid sspstrong uwtable
define void @dissect_q931_high_layer_compat_ie(ptr noundef %0, i32 noundef %1, i32 noundef %2, ptr noundef %3) local_unnamed_addr #0 {
  %5 = icmp eq i32 %2, 0
  br i1 %5, label %50, label %6

6:                                                ; preds = %4
  %7 = tail call zeroext i8 @tvb_get_uint8(ptr noundef %0, i32 noundef %1)
  %8 = zext i8 %7 to i32
  %9 = load i32, ptr @hf_q931_extension_ind, align 4
  %10 = tail call ptr @proto_tree_add_item(ptr noundef %3, i32 noundef %9, ptr noundef %0, i32 noundef %1, i32 noundef 1, i32 noundef 0)
  %11 = load i32, ptr @hf_q931_coding_standard, align 4
  %12 = tail call ptr @proto_tree_add_uint(ptr noundef %3, i32 noundef %11, ptr noundef %0, i32 noundef %1, i32 noundef 1, i32 noundef %8)
  %13 = load i32, ptr @hf_q931_interpretation, align 4
  %14 = tail call ptr @proto_tree_add_uint(ptr noundef %3, i32 noundef %13, ptr noundef %0, i32 noundef %1, i32 noundef 1, i32 noundef %8)
  %15 = load i32, ptr @hf_q931_pres_meth_prot_prof, align 4
  %16 = tail call ptr @proto_tree_add_uint(ptr noundef %3, i32 noundef %15, ptr noundef %0, i32 noundef %1, i32 noundef 1, i32 noundef %8)
  %17 = add i32 %1, 1
  %18 = add i32 %2, -1
  %19 = and i8 %7, 99
  %or.cond.not = icmp eq i8 %19, 1
  br i1 %or.cond.not, label %23, label %20

20:                                               ; preds = %6
  %21 = load i32, ptr @hf_q931_high_layer_compat_data, align 4
  %22 = tail call ptr @proto_tree_add_item(ptr noundef %3, i32 noundef %21, ptr noundef %0, i32 noundef %17, i32 noundef %18, i32 noundef 0)
  br label %50

23:                                               ; preds = %6
  %24 = icmp eq i32 %18, 0
  br i1 %24, label %50, label %25

25:                                               ; preds = %23
  %26 = tail call zeroext i8 @tvb_get_uint8(ptr noundef %0, i32 noundef %17)
  %.fr80 = freeze i8 %26
  %27 = zext i8 %.fr80 to i32
  %28 = load i32, ptr @hf_q931_extension_ind, align 4
  %29 = tail call ptr @proto_tree_add_item(ptr noundef %3, i32 noundef %28, ptr noundef %0, i32 noundef %17, i32 noundef 1, i32 noundef 0)
  %30 = load i32, ptr @hf_q931_high_layer_characteristics, align 4
  %31 = tail call ptr @proto_tree_add_uint(ptr noundef %3, i32 noundef %30, ptr noundef %0, i32 noundef %17, i32 noundef 1, i32 noundef %27)
  %32 = add i32 %1, 2
  %.not = icmp slt i8 %.fr80, 0
  %33 = icmp eq i32 %2, 2
  %or.cond = or i1 %33, %.not
  br i1 %or.cond, label %50, label %34

34:                                               ; preds = %25
  %35 = tail call zeroext i8 @tvb_get_uint8(ptr noundef %0, i32 noundef %32)
  %36 = and i8 %.fr80, 126
  %or.cond5 = icmp eq i8 %36, 96
  br i1 %or.cond5, label %37, label %switch.early.test

switch.early.test:                                ; preds = %34
  switch i8 %.fr80, label %43 [
    i8 98, label %37
    i8 104, label %37
  ]

37:                                               ; preds = %switch.early.test, %switch.early.test, %34
  %38 = load i32, ptr @hf_q931_extension_ind, align 4
  %39 = tail call ptr @proto_tree_add_item(ptr noundef %3, i32 noundef %38, ptr noundef %0, i32 noundef %32, i32 noundef 1, i32 noundef 0)
  %40 = load i32, ptr @hf_q931_extended_audiovisual_characteristics, align 4
  %41 = zext i8 %35 to i32
  %42 = tail call ptr @proto_tree_add_uint(ptr noundef %3, i32 noundef %40, ptr noundef %0, i32 noundef %32, i32 noundef 1, i32 noundef %41)
  br label %50

43:                                               ; preds = %switch.early.test
  %or.cond14 = icmp eq i8 %36, 94
  br i1 %or.cond14, label %44, label %50

44:                                               ; preds = %43
  %45 = load i32, ptr @hf_q931_extension_ind, align 4
  %46 = tail call ptr @proto_tree_add_item(ptr noundef %3, i32 noundef %45, ptr noundef %0, i32 noundef %32, i32 noundef 1, i32 noundef 0)
  %47 = load i32, ptr @hf_q931_extended_high_layer_characteristics, align 4
  %48 = zext i8 %35 to i32
  %49 = tail call ptr @proto_tree_add_uint(ptr noundef %3, i32 noundef %47, ptr noundef %0, i32 noundef %32, i32 noundef 1, i32 noundef %48)
  br label %50

50:                                               ; preds = %25, %44, %43, %37, %23, %4, %20
  ret void
}